; Function Attrs: mustprogress sspstrong uwtable
define void @_ZN3tbb6detail2r117thread_dispatcher7releaseEb(ptr noundef nonnull align 8 captures(none) dereferenceable(152) initializes((96, 97)) %0, i1 noundef zeroext %1) local_unnamed_addr #0 align 2 {
  %3 = zext i1 %1 to i8
  %4 = getelementptr inbounds nuw i8, ptr %0, i64 96
  store i8 %3, ptr %4, align 8, !tbaa !32
  %5 = getelementptr inbounds nuw i8, ptr %0, i64 144
  %6 = load ptr, ptr %5, align 8, !tbaa !38
  %7 = load ptr, ptr %6, align 8, !tbaa !3
  %8 = getelementptr inbounds nuw i8, ptr %7, i64 24
  %9 = load ptr, ptr %8, align 8
  tail call void %9(ptr noundef nonnull align 8 dereferenceable(8) %6, i1 noundef zeroext false)
  ret void
}